target datalayout = "e-m:e-p270:32:32-p271:32:32-p272:64:64-i64:64-i128:128-f80:128-n8:16:32:64-S128"
target triple = "x86_64-pc-linux-gnu"

%class.QString = type { %struct.QArrayDataPointer.4 }
%struct.QArrayDataPointer.4 = type { ptr, ptr, i64 }
%class.QTreeWidgetItem.base = type <{ ptr, i32, [4 x i8], %class.QList, ptr, ptr, ptr, %class.QList.0, %class.QFlags }>
%class.QList = type { %struct.QArrayDataPointer }
%struct.QArrayDataPointer = type { ptr, ptr, i64 }
%class.QList.0 = type { %struct.QArrayDataPointer.3 }
%struct.QArrayDataPointer.3 = type { ptr, ptr, i64 }
%class.QFlags = type { i32 }
%class.LBMLBTRUSourceTransportEntry = type { %class.QTreeWidgetItem.base, %class.QString, i64, i64, i64, i64, i64, i64, i64, i64, i64, i64, i64, %struct.nstime_t, i8, %struct.nstime_t, %class.QMap.8, %class.QMap.8, %class.QMap.10, %class.QMap.8, %class.QMap.12 }
%struct.nstime_t = type { i64, i32 }
%class.QMap.10 = type { %"class.QtPrivate::QExplicitlySharedDataPointerV2.11" }
%"class.QtPrivate::QExplicitlySharedDataPointerV2.11" = type { ptr }
%class.QMap.8 = type { %"class.QtPrivate::QExplicitlySharedDataPointerV2.9" }
%"class.QtPrivate::QExplicitlySharedDataPointerV2.9" = type { ptr }
%class.QMap.12 = type { %"class.QtPrivate::QExplicitlySharedDataPointerV2.13" }
%"class.QtPrivate::QExplicitlySharedDataPointerV2.13" = type { ptr }
%class.Ui_LBMLBTRUTransportDialog = type { ptr, ptr, ptr, ptr, ptr, ptr, ptr, ptr, ptr, ptr, ptr, ptr, ptr, ptr, ptr, ptr, ptr, ptr, ptr, ptr, ptr, ptr, ptr, ptr, ptr, ptr, ptr, ptr, ptr, ptr, ptr, ptr, ptr, ptr, ptr, ptr, ptr, ptr, ptr, ptr, ptr, ptr, ptr, ptr, ptr, ptr, ptr, ptr, ptr, ptr, ptr, ptr, ptr, ptr, ptr, ptr, ptr, ptr, ptr, ptr, ptr, ptr, ptr, ptr, ptr, ptr, ptr, ptr, ptr, ptr, ptr, ptr, ptr, ptr, ptr, ptr, ptr, ptr, ptr, ptr, ptr, ptr, ptr, ptr, ptr, ptr, ptr, ptr, ptr, ptr, ptr, ptr }
%class.LBMLBTRUTransportDialog = type { %class.QDialog, ptr, ptr, ptr, ptr, ptr, ptr, ptr, ptr, ptr }
%class.QDialog = type { %class.QWidget }
%class.QWidget = type { %class.QObject, %class.QPaintDevice.base, ptr }
%class.QObject = type { ptr, %class.QScopedPointer }
%class.QScopedPointer = type { ptr }
%class.QPaintDevice.base = type <{ ptr, i16 }>

@_ZTI15QTreeWidgetItem = external constant ptr
@_ZTI28LBMLBTRUSourceTransportEntry = constant { ptr, ptr, ptr } { ptr getelementptr inbounds (ptr, ptr @_ZTVN10__cxxabiv120__si_class_type_infoE, i64 2), ptr @_ZTS28LBMLBTRUSourceTransportEntry, ptr @_ZTI15QTreeWidgetItem }, align 8

; Function Attrs: mustprogress null_pointer_is_valid sspstrong uwtable
define void @_ZN23LBMLBTRUTransportDialog18sourcesItemClickedEP15QTreeWidgetItemi(ptr noundef align 8 dereferenceable_or_null(112) %0, ptr noundef %1, i32 noundef %2) #0 align 2 {
  %4 = alloca ptr, align 8
  %5 = alloca ptr, align 8
  %6 = alloca i32, align 4
  %7 = alloca ptr, align 8
  %8 = alloca i32, align 4
  %9 = alloca i32, align 4
  store ptr %0, ptr %4, align 8
  store ptr %1, ptr %5, align 8
  store i32 %2, ptr %6, align 4
  %10 = load ptr, ptr %4, align 8
  call void @llvm.lifetime.start.p0(i64 8, ptr %7) #22
  %11 = load ptr, ptr %5, align 8
  %12 = icmp eq ptr %11, null
  br i1 %12, label %15, label %13

13:                                               ; preds = %3
  %14 = call ptr @__dynamic_cast(ptr %11, ptr @_ZTI15QTreeWidgetItem, ptr @_ZTI28LBMLBTRUSourceTransportEntry, i64 0) #22
  br label %16

15:                                               ; preds = %3
  br label %16

16:                                               ; preds = %15, %13
  %17 = phi ptr [ %14, %13 ], [ null, %15 ]
  store ptr %17, ptr %7, align 8
  call void @_ZN23LBMLBTRUTransportDialog18resetSourcesDetailEv(ptr noundef align 8 dereferenceable_or_null(112) %10)
  %18 = load ptr, ptr %7, align 8
  %19 = icmp eq ptr %18, null
  br i1 %19, label %20, label %21

20:                                               ; preds = %16
  store i32 1, ptr %8, align 4
  br label %48

21:                                               ; preds = %16
  %22 = load ptr, ptr %7, align 8
  %23 = getelementptr inbounds nuw %class.LBMLBTRUTransportDialog, ptr %10, i32 0, i32 4
  store ptr %22, ptr %23, align 8
  %24 = getelementptr inbounds nuw %class.LBMLBTRUTransportDialog, ptr %10, i32 0, i32 1
  %25 = load ptr, ptr %24, align 8
  %26 = getelementptr inbounds nuw %class.Ui_LBMLBTRUTransportDialog, ptr %25, i32 0, i32 56
  %27 = load ptr, ptr %26, align 8
  %28 = load ptr, ptr %7, align 8
  %29 = getelementptr inbounds nuw %class.LBMLBTRUSourceTransportEntry, ptr %28, i32 0, i32 1
  call void @_ZN6QLabel7setTextERK7QString(ptr noundef align 8 dereferenceable_or_null(40) %27, ptr noundef align 8 dereferenceable(24) %29)
  call void @llvm.lifetime.start.p0(i64 4, ptr %9) #22
  %30 = getelementptr inbounds nuw %class.LBMLBTRUTransportDialog, ptr %10, i32 0, i32 1
  %31 = load ptr, ptr %30, align 8
  %32 = getelementptr inbounds nuw %class.Ui_LBMLBTRUTransportDialog, ptr %31, i32 0, i32 54
  %33 = load ptr, ptr %32, align 8
  %34 = call noundef i32 @_ZNK9QComboBox12currentIndexEv(ptr noundef align 8 dereferenceable_or_null(40) %33)
  store i32 %34, ptr %9, align 4
  %35 = load i32, ptr %9, align 4
  switch i32 %35, label %46 [
    i32 0, label %36
    i32 1, label %38
    i32 2, label %40
    i32 3, label %42
    i32 4, label %44
  ]

36:                                               ; preds = %21
  %37 = load ptr, ptr %7, align 8
  call void @_ZN23LBMLBTRUTransportDialog21loadSourceDataDetailsEP28LBMLBTRUSourceTransportEntry(ptr noundef align 8 dereferenceable_or_null(112) %10, ptr noundef %37)
  br label %47

38:                                               ; preds = %21
  %39 = load ptr, ptr %7, align 8
  call void @_ZN23LBMLBTRUTransportDialog23loadSourceRXDataDetailsEP28LBMLBTRUSourceTransportEntry(ptr noundef align 8 dereferenceable_or_null(112) %10, ptr noundef %39)
  br label %47

40:                                               ; preds = %21
  %41 = load ptr, ptr %7, align 8
  call void @_ZN23LBMLBTRUTransportDialog20loadSourceNCFDetailsEP28LBMLBTRUSourceTransportEntry(ptr noundef align 8 dereferenceable_or_null(112) %10, ptr noundef %41)
  br label %47

42:                                               ; preds = %21
  %43 = load ptr, ptr %7, align 8
  call void @_ZN23LBMLBTRUTransportDialog19loadSourceSMDetailsEP28LBMLBTRUSourceTransportEntry(ptr noundef align 8 dereferenceable_or_null(112) %10, ptr noundef %43)
  br label %47

44:                                               ; preds = %21
  %45 = load ptr, ptr %7, align 8
  call void @_ZN23LBMLBTRUTransportDialog20loadSourceRSTDetailsEP28LBMLBTRUSourceTransportEntry(ptr noundef align 8 dereferenceable_or_null(112) %10, ptr noundef %45)
  br label %47

46:                                               ; preds = %21
  br label %47

47:                                               ; preds = %46, %44, %42, %40, %38, %36
  call void @llvm.lifetime.end.p0(i64 4, ptr %9) #22
  store i32 0, ptr %8, align 4
  br label %48

48:                                               ; preds = %47, %20
  call void @llvm.lifetime.end.p0(i64 8, ptr %7) #22
  %49 = load i32, ptr %8, align 4
  switch i32 %49, label %51 [
    i32 0, label %50
    i32 1, label %50
  ]

50:                                               ; preds = %48, %48
  ret void

51:                                               ; preds = %48
  unreachable
}