; Function Attrs: mustprogress null_pointer_is_valid sspstrong uwtable
define void @_ZN23LBMLBTRUTransportDialog18sourcesItemClickedEP15QTreeWidgetItemi(ptr noundef align 8 captures(none) dereferenceable_or_null(112) %0, ptr noundef %1, i32 %2) local_unnamed_addr #0 align 2 {
  %4 = icmp eq ptr %1, null
  br i1 %4, label %.thread, label %5

.thread:                                          ; preds = %3
  tail call void @_ZN23LBMLBTRUTransportDialog18resetSourcesDetailEv(ptr noundef align 8 dereferenceable_or_null(112) %0)
  br label %24

5:                                                ; preds = %3
  %6 = tail call ptr @__dynamic_cast(ptr nonnull %1, ptr nonnull @_ZTI15QTreeWidgetItem, ptr nonnull @_ZTI28LBMLBTRUSourceTransportEntry, i64 0) #19
  tail call void @_ZN23LBMLBTRUTransportDialog18resetSourcesDetailEv(ptr noundef align 8 dereferenceable_or_null(112) %0)
  %7 = icmp eq ptr %6, null
  br i1 %7, label %24, label %8

8:                                                ; preds = %5
  %9 = getelementptr inbounds nuw i8, ptr %0, i64 64
  store ptr %6, ptr %9, align 8
  %10 = getelementptr inbounds nuw i8, ptr %0, i64 40
  %11 = load ptr, ptr %10, align 8
  %12 = getelementptr inbounds nuw i8, ptr %11, i64 448
  %13 = load ptr, ptr %12, align 8
  %14 = getelementptr inbounds nuw i8, ptr %6, i64 96
  tail call void @_ZN6QLabel7setTextERK7QString(ptr noundef align 8 dereferenceable_or_null(40) %13, ptr noundef nonnull align 8 dereferenceable(24) %14)
  %15 = load ptr, ptr %10, align 8
  %16 = getelementptr inbounds nuw i8, ptr %15, i64 432
  %17 = load ptr, ptr %16, align 8
  %18 = tail call noundef i32 @_ZNK9QComboBox12currentIndexEv(ptr noundef align 8 dereferenceable_or_null(40) %17)
  switch i32 %18, label %24 [
    i32 0, label %19
    i32 1, label %20
    i32 2, label %21
    i32 3, label %22
    i32 4, label %23
  ]

19:                                               ; preds = %8
  tail call void @_ZN23LBMLBTRUTransportDialog21loadSourceDataDetailsEP28LBMLBTRUSourceTransportEntry(ptr noundef align 8 dereferenceable_or_null(112) %0, ptr noundef nonnull %6)
  br label %24

20:                                               ; preds = %8
  tail call void @_ZN23LBMLBTRUTransportDialog23loadSourceRXDataDetailsEP28LBMLBTRUSourceTransportEntry(ptr noundef align 8 dereferenceable_or_null(112) %0, ptr noundef nonnull %6)
  br label %24

21:                                               ; preds = %8
  tail call void @_ZN23LBMLBTRUTransportDialog20loadSourceNCFDetailsEP28LBMLBTRUSourceTransportEntry(ptr noundef align 8 dereferenceable_or_null(112) %0, ptr noundef nonnull %6)
  br label %24

22:                                               ; preds = %8
  tail call void @_ZN23LBMLBTRUTransportDialog19loadSourceSMDetailsEP28LBMLBTRUSourceTransportEntry(ptr noundef align 8 dereferenceable_or_null(112) %0, ptr noundef nonnull %6)
  br label %24

23:                                               ; preds = %8
  tail call void @_ZN23LBMLBTRUTransportDialog20loadSourceRSTDetailsEP28LBMLBTRUSourceTransportEntry(ptr noundef align 8 dereferenceable_or_null(112) %0, ptr noundef nonnull %6)
  br label %24

24:                                               ; preds = %.thread, %19, %20, %21, %22, %23, %8, %5
  ret void
}